(lp0
(lp1
I1
aI-150
aI200
aS'wall.png'
p2
aI01
aa(lp3
I1
aI-100
aI200
ag2
aI01
aa(lp4
I1
aI-50
aI200
ag2
aI01
aa(lp5
I0
aI-100
aI150
aS'sand.png'
p6
aI00
aa(lp7
I1
aI-200
aI100
ag2
aI01
aa(lp8
I1
aI-200
aI150
ag2
aI01
aa(lp9
I1
aI-200
aI200
ag2
aI01
aa(lp10
I0
aI-150
aI100
ag6
aI00
aa(lp11
I1
aI-200
aI50
ag2
aI01
aa(lp12
I2
aI-100
aI100
aS'stairsBroken.png'
p13
aI00
aa(lp14
I0
aI-150
aI50
ag6
aI00
aa(lp15
I0
aI-100
aI50
ag6
aI00
aa(lp16
I0
aI-50
aI100
ag6
aI00
aa(lp17
I0
aI-50
aI150
ag6
aI00
aa(lp18
I0
aI-150
aI150
ag6
aI00
aa(lp19
I1
aI-200
aI0
ag2
aI01
aa(lp20
I1
aI-150
aI0
ag2
aI01
aa(lp21
I1
aI-100
aI0
ag2
aI01
aa(lp22
I1
aI-50
aI0
ag2
aI01
aa(lp23
I1
aI0
aI200
ag2
aI01
aa(lp24
I1
aI0
aI150
ag2
aI01
aa(lp25
I1
aI0
aI100
ag2
aI01
aa(lp26
I1
aI0
aI0
ag2
aI01
aa(lp27
I0
aI-50
aI50
ag6
aI00
aa(lp28
I0
aI0
aI50
ag6
aI00
aa(lp29
I0
aI50
aI50
ag6
aI00
aa(lp30
I0
aI50
aI0
ag6
aI00
aa(lp31
I0
aI100
aI50
ag6
aI00
aa(lp32
I0
aI50
aI150
ag6
aI00
aa(lp33
I0
aI50
aI100
ag6
aI00
aa(lp34
I0
aI100
aI100
ag6
aI00
aa(lp35
I0
aI100
aI150
ag6
aI00
aa(lp36
I0
aI150
aI150
ag6
aI00
aa(lp37
I0
aI150
aI100
ag6
aI00
aa(lp38
I0
aI150
aI50
ag6
aI00
aa(lp39
I0
aI150
aI0
ag6
aI00
aa(lp40
I1
aI50
aI200
aS'wall.png'
p41
aI01
aa(lp42
I1
aI100
aI200
ag41
aI01
aa(lp43
I1
aI200
aI200
ag41
aI01
aa(lp44
I1
aI250
aI200
ag41
aI01
aa(lp45
I1
aI300
aI200
ag41
aI01
aa(lp46
I1
aI300
aI150
ag41
aI01
aa(lp47
I1
aI300
aI100
ag41
aI01
aa(lp48
I1
aI300
aI50
ag41
aI01
aa(lp49
I1
aI300
aI0
ag41
aI01
aa(lp50
I1
aI300
aI-50
ag41
aI01
aa(lp51
I1
aI0
aI-50
ag41
aI01
aa(lp52
I1
aI0
aI-100
ag41
aI01
aa(lp53
I1
aI0
aI-150
ag41
aI01
aa(lp54
I1
aI0
aI-200
ag41
aI01
aa(lp55
I1
aI300
aI-100
ag41
aI01
aa(lp56
I1
aI300
aI-150
ag41
aI01
aa(lp57
I1
aI300
aI-200
ag41
aI01
aa(lp58
I1
aI300
aI-300
ag41
aI01
aa(lp59
I1
aI0
aI-250
ag41
aI01
aa(lp60
I1
aI0
aI-300
ag41
aI01
aa(lp61
I1
aI0
aI-350
ag41
aI01
aa(lp62
I1
aI300
aI-350
ag41
aI01
aa(lp63
I1
aI300
aI-400
ag41
aI01
aa(lp64
I1
aI150
aI-400
ag41
aI01
aa(lp65
I1
aI100
aI-400
ag41
aI01
aa(lp66
I1
aI50
aI-400
ag41
aI01
aa(lp67
I1
aI0
aI-400
ag41
aI01
aa(lp68
I1
aI250
aI-400
ag41
aI01
aa(lp69
I0
aI100
aI0
ag6
aI00
aa(lp70
I0
aI50
aI-50
ag6
aI00
aa(lp71
I0
aI50
aI-100
ag6
aI00
aa(lp72
I0
aI50
aI-150
ag6
aI00
aa(lp73
I0
aI50
aI-200
ag6
aI00
aa(lp74
I0
aI50
aI-250
ag6
aI00
aa(lp75
I0
aI50
aI-350
ag6
aI00
aa(lp76
I0
aI100
aI-350
ag6
aI00
aa(lp77
I0
aI150
aI-350
ag6
aI00
aa(lp78
I0
aI200
aI-350
ag6
aI00
aa(lp79
I0
aI250
aI-350
ag6
aI00
aa(lp80
I0
aI250
aI-300
ag6
aI00
aa(lp81
I0
aI250
aI-250
ag6
aI00
aa(lp82
I0
aI250
aI-150
ag6
aI00
aa(lp83
I0
aI250
aI-100
ag6
aI00
aa(lp84
I0
aI250
aI-50
ag6
aI00
aa(lp85
I0
aI250
aI0
ag6
aI00
aa(lp86
I0
aI250
aI50
ag6
aI00
aa(lp87
I0
aI250
aI100
ag6
aI00
aa(lp88
I0
aI250
aI150
ag6
aI00
aa(lp89
I0
aI200
aI150
ag6
aI00
aa(lp90
I0
aI200
aI100
ag6
aI00
aa(lp91
I0
aI200
aI50
ag6
aI00
aa(lp92
I0
aI200
aI0
ag6
aI00
aa(lp93
I0
aI200
aI-50
ag6
aI00
aa(lp94
I0
aI100
aI-50
ag6
aI00
aa(lp95
I0
aI100
aI-100
ag6
aI00
aa(lp96
I0
aI150
aI-100
ag6
aI00
aa(lp97
I0
aI200
aI-100
ag6
aI00
aa(lp98
I0
aI100
aI-150
ag6
aI00
aa(lp99
I0
aI150
aI-150
ag6
aI00
aa(lp100
I0
aI250
aI-200
ag6
aI00
aa(lp101
I0
aI200
aI-200
ag6
aI00
aa(lp102
I0
aI100
aI-200
ag6
aI00
aa(lp103
I0
aI150
aI-200
ag6
aI00
aa(lp104
I0
aI200
aI-250
ag6
aI00
aa(lp105
I0
aI150
aI-250
ag6
aI00
aa(lp106
I0
aI100
aI-250
ag6
aI00
aa(lp107
I0
aI50
aI-300
ag6
aI00
aa(lp108
I0
aI100
aI-300
ag6
aI00
aa(lp109
I0
aI150
aI-300
ag6
aI00
aa(lp110
I0
aI200
aI-300
ag6
aI00
aa(lp111
I1
aI150
aI-50
ag41
aI01
aa(lp112
I1
aI200
aI-150
ag41
aI01
aa(lp113
I1
aI350
aI-300
ag41
aI01
aa(lp114
I1
aI400
aI-300
ag41
aI01
aa(lp115
I1
aI450
aI-300
ag41
aI01
aa(lp116
I1
aI350
aI-100
ag41
aI01
aa(lp117
I1
aI400
aI-100
ag41
aI01
aa(lp118
I1
aI450
aI-100
ag41
aI01
aa(lp119
I1
aI500
aI-100
ag41
aI01
aa(lp120
I1
aI500
aI-150
ag41
aI01
aa(lp121
I1
aI500
aI-200
ag41
aI01
aa(lp122
I1
aI500
aI-250
ag41
aI01
aa(lp123
I1
aI500
aI-300
ag41
aI01
aa(lp124
I0
aI300
aI-250
ag6
aI00
aa(lp125
I0
aI350
aI-250
ag6
aI00
aa(lp126
I0
aI400
aI-250
ag6
aI00
aa(lp127
I0
aI450
aI-250
ag6
aI00
aa(lp128
I0
aI400
aI-150
ag6
aI00
aa(lp129
I0
aI350
aI-150
ag6
aI00
aa(lp130
I0
aI350
aI-200
ag6
aI00
aa(lp131
I0
aI450
aI-200
ag6
aI00
aa(lp132
I0
aI450
aI-150
ag6
aI00
aa(lp133
I3
aI400
aI-200
aS'stairsDown.png'
p134
aI00
aa(lp135
I106
aS'turretup.png'
p136
aI150
aI200
aa(lp137
I107
aS'turretdown.png'
p138
aI200
aI-400
aa(lp139
cpygame
__rect_constructor
p140
(I-150
I150
I27
I46
tp141
Rp142
aa.