(lp0
(lp1
I0
aI0
aI200
aS'sand.png'
p2
aI00
aa(lp3
I0
aI-100
aI200
ag2
aI00
aa(lp4
I0
aI-150
aI200
ag2
aI00
aa(lp5
I0
aI-50
aI200
ag2
aI00
aa(lp6
I1
aI-250
aI200
aS'wall.png'
p7
aI01
aa(lp8
I1
aI-250
aI250
ag7
aI01
aa(lp9
I1
aI-200
aI250
ag7
aI01
aa(lp10
I1
aI-150
aI250
ag7
aI01
aa(lp11
I1
aI-100
aI250
ag7
aI01
aa(lp12
I1
aI-50
aI250
ag7
aI01
aa(lp13
I1
aI0
aI250
ag7
aI01
aa(lp14
I1
aI50
aI250
ag7
aI01
aa(lp15
I1
aI100
aI250
ag7
aI01
aa(lp16
I1
aI150
aI250
ag7
aI01
aa(lp17
I0
aI50
aI200
aS'sand.png'
p18
aI00
aa(lp19
I0
aI100
aI200
ag18
aI00
aa(lp20
I1
aI150
aI200
ag7
aI01
aa(lp21
I1
aI-250
aI150
ag7
aI01
aa(lp22
I0
aI-200
aI150
aS'sand.png'
p23
aI00
aa(lp24
I0
aI-150
aI150
ag23
aI00
aa(lp25
I0
aI-100
aI150
ag23
aI00
aa(lp26
I0
aI0
aI150
ag23
aI00
aa(lp27
I0
aI50
aI150
ag23
aI00
aa(lp28
I0
aI100
aI150
ag23
aI00
aa(lp29
I0
aI100
aI100
ag23
aI00
aa(lp30
I0
aI50
aI100
ag23
aI00
aa(lp31
I0
aI0
aI100
ag23
aI00
aa(lp32
I0
aI-50
aI100
ag23
aI00
aa(lp33
I0
aI-100
aI100
ag23
aI00
aa(lp34
I0
aI-150
aI100
ag23
aI00
aa(lp35
I0
aI-200
aI100
ag23
aI00
aa(lp36
I2
aI-50
aI150
aS'stairsBroken.png'
p37
aI00
aa(lp38
I0
aI-200
aI200
ag23
aI00
aa(lp39
I1
aI150
aI150
ag7
aI01
aa(lp40
I1
aI150
aI100
ag7
aI01
aa(lp41
I1
aI150
aI50
ag7
aI01
aa(lp42
I1
aI-250
aI100
ag7
aI01
aa(lp43
I1
aI-250
aI50
ag7
aI01
aa(lp44
I0
aI-200
aI50
ag23
aI00
aa(lp45
I0
aI-150
aI50
ag23
aI00
aa(lp46
I0
aI-100
aI50
ag23
aI00
aa(lp47
I0
aI-50
aI50
ag23
aI00
aa(lp48
I0
aI0
aI50
ag23
aI00
aa(lp49
I0
aI50
aI50
ag23
aI00
aa(lp50
I0
aI100
aI50
ag23
aI00
aa(lp51
I1
aI200
aI50
ag7
aI01
aa(lp52
I1
aI200
aI0
ag7
aI01
aa(lp53
I1
aI200
aI-50
ag7
aI01
aa(lp54
I1
aI-300
aI50
ag7
aI01
aa(lp55
I0
aI-150
aI0
ag23
aI00
aa(lp56
I0
aI-200
aI0
ag23
aI00
aa(lp57
I0
aI-250
aI0
ag23
aI00
aa(lp58
I0
aI-200
aI-50
ag23
aI00
aa(lp59
I0
aI-150
aI-50
ag23
aI00
aa(lp60
I0
aI-100
aI-50
ag23
aI00
aa(lp61
I0
aI-100
aI0
ag23
aI00
aa(lp62
I0
aI-50
aI0
ag23
aI00
aa(lp63
I0
aI-50
aI-50
ag23
aI00
aa(lp64
I0
aI0
aI-50
ag23
aI00
aa(lp65
I0
aI0
aI0
ag23
aI00
aa(lp66
I0
aI50
aI-50
ag23
aI00
aa(lp67
I0
aI50
aI0
ag23
aI00
aa(lp68
I0
aI100
aI0
ag23
aI00
aa(lp69
I0
aI150
aI0
ag23
aI00
aa(lp70
I1
aI-300
aI0
ag7
aI01
aa(lp71
I1
aI-300
aI-50
ag7
aI01
aa(lp72
I0
aI-250
aI-50
ag23
aI00
aa(lp73
I0
aI100
aI-50
ag23
aI00
aa(lp74
I0
aI150
aI-50
ag23
aI00
aa(lp75
I1
aI200
aI-100
ag7
aI01
aa(lp76
I1
aI200
aI-150
ag7
aI01
aa(lp77
I1
aI150
aI-150
ag7
aI01
aa(lp78
I1
aI100
aI-150
ag7
aI01
aa(lp79
I1
aI50
aI-150
ag7
aI01
aa(lp80
I1
aI0
aI-150
ag7
aI01
aa(lp81
I1
aI-50
aI-150
ag7
aI01
aa(lp82
I1
aI-100
aI-150
ag7
aI01
aa(lp83
I1
aI-150
aI-150
ag7
aI01
aa(lp84
I1
aI-200
aI-150
ag7
aI01
aa(lp85
I1
aI-250
aI-150
ag7
aI01
aa(lp86
I1
aI-300
aI-150
ag7
aI01
aa(lp87
I1
aI-300
aI-100
ag7
aI01
aa(lp88
I0
aI-150
aI-100
ag23
aI00
aa(lp89
I0
aI-100
aI-100
ag23
aI00
aa(lp90
I0
aI0
aI-100
ag23
aI00
aa(lp91
I0
aI50
aI-100
ag23
aI00
aa(lp92
I0
aI100
aI-100
ag23
aI00
aa(lp93
I3
aI-50
aI-100
aS'stairsDown.png'
p94
aI00
aa(lp95
I4
aI-250
aI-100
aS'torch.png'
p96
aI00
aa(lp97
I0
aI-200
aI-100
ag23
aI00
aa(lp98
I4
aI150
aI-100
ag96
aI00
aa(lp99
I103
aS'spikeblock.png'
p100
aI-201
aI0
aa(lp101
cpygame
__rect_constructor
p102
(I-50
I150
I27
I46
tp103
Rp104
aa.