(lp0
(lp1
I0
aI-100
aI-100
aS'sand.png'
p2
aI00
aa(lp3
I0
aI-100
aI-150
ag2
aI00
aa(lp4
I0
aI0
aI-150
ag2
aI00
aa(lp5
I0
aI-200
aI200
ag2
aI00
aa(lp6
I0
aI-150
aI200
ag2
aI00
aa(lp7
I0
aI-200
aI100
ag2
aI00
aa(lp8
I0
aI-150
aI100
ag2
aI00
aa(lp9
I0
aI-100
aI100
ag2
aI00
aa(lp10
I0
aI-50
aI100
ag2
aI00
aa(lp11
I0
aI-100
aI-50
ag2
aI00
aa(lp12
I0
aI-50
aI-50
ag2
aI00
aa(lp13
I0
aI-50
aI-100
ag2
aI00
aa(lp14
I0
aI0
aI-100
ag2
aI00
aa(lp15
I0
aI0
aI-50
ag2
aI00
aa(lp16
I0
aI-150
aI-50
ag2
aI00
aa(lp17
I0
aI-200
aI-50
ag2
aI00
aa(lp18
I0
aI-200
aI-100
ag2
aI00
aa(lp19
I0
aI-150
aI-150
ag2
aI00
aa(lp20
I1
aI-100
aI-200
aS'wall.png'
p21
aI01
aa(lp22
I1
aI-150
aI-200
ag21
aI01
aa(lp23
I1
aI-200
aI-200
ag21
aI01
aa(lp24
I1
aI-250
aI-200
ag21
aI01
aa(lp25
I1
aI-250
aI-150
ag21
aI01
aa(lp26
I1
aI-250
aI-100
ag21
aI01
aa(lp27
I1
aI-250
aI-50
ag21
aI01
aa(lp28
I1
aI-250
aI150
ag21
aI01
aa(lp29
I1
aI50
aI-200
ag21
aI01
aa(lp30
I0
aI-150
aI-100
ag2
aI00
aa(lp31
I1
aI-250
aI100
ag21
aI01
aa(lp32
I1
aI-250
aI0
ag21
aI01
aa(lp33
I1
aI0
aI-200
ag21
aI01
aa(lp34
I1
aI-50
aI-200
ag21
aI01
aa(lp35
I0
aI50
aI-150
ag2
aI00
aa(lp36
I0
aI50
aI-100
ag2
aI00
aa(lp37
I0
aI50
aI-50
ag2
aI00
aa(lp38
I0
aI50
aI100
ag2
aI00
aa(lp39
I0
aI0
aI100
ag2
aI00
aa(lp40
I0
aI0
aI200
ag2
aI00
aa(lp41
I0
aI0
aI150
ag2
aI00
aa(lp42
I0
aI-50
aI150
ag2
aI00
aa(lp43
I0
aI-100
aI150
ag2
aI00
aa(lp44
I0
aI-150
aI150
ag2
aI00
aa(lp45
I0
aI-200
aI150
ag2
aI00
aa(lp46
I0
aI50
aI200
ag2
aI00
aa(lp47
I0
aI50
aI150
ag2
aI00
aa(lp48
I2
aI-50
aI-150
aS'stairsBroken.png'
p49
aI00
aa(lp50
I0
aI-200
aI-150
ag2
aI00
aa(lp51
I1
aI100
aI-200
ag21
aI01
aa(lp52
I0
aI100
aI200
ag2
aI00
aa(lp53
I0
aI100
aI150
ag2
aI00
aa(lp54
I0
aI100
aI100
ag2
aI00
aa(lp55
I0
aI100
aI-50
ag2
aI00
aa(lp56
I0
aI100
aI-100
ag2
aI00
aa(lp57
I0
aI100
aI-150
ag2
aI00
aa(lp58
I1
aI150
aI-200
ag21
aI01
aa(lp59
I1
aI150
aI-150
ag21
aI01
aa(lp60
I1
aI150
aI-100
ag21
aI01
aa(lp61
I1
aI150
aI-50
ag21
aI01
aa(lp62
I1
aI150
aI0
ag21
aI01
aa(lp63
I1
aI150
aI50
ag21
aI01
aa(lp64
I1
aI150
aI100
ag21
aI01
aa(lp65
I1
aI150
aI150
ag21
aI01
aa(lp66
I1
aI150
aI200
ag21
aI01
aa(lp67
I1
aI100
aI50
ag21
aI01
aa(lp68
I1
aI50
aI50
ag21
aI01
aa(lp69
I1
aI0
aI50
ag21
aI01
aa(lp70
I1
aI-100
aI50
ag21
aI01
aa(lp71
I1
aI-150
aI50
ag21
aI01
aa(lp72
I1
aI-200
aI50
ag21
aI01
aa(lp73
I1
aI-250
aI50
ag21
aI01
aa(lp74
I1
aI150
aI250
ag21
aI01
aa(lp75
I1
aI150
aI300
ag21
aI01
aa(lp76
I1
aI100
aI300
ag21
aI01
aa(lp77
I1
aI50
aI300
ag21
aI01
aa(lp78
I1
aI0
aI300
ag21
aI01
aa(lp79
I1
aI-50
aI300
ag21
aI01
aa(lp80
I1
aI-100
aI300
ag21
aI01
aa(lp81
I1
aI-150
aI300
ag21
aI01
aa(lp82
I1
aI-200
aI300
ag21
aI01
aa(lp83
I1
aI-250
aI300
ag21
aI01
aa(lp84
I1
aI-250
aI250
ag21
aI01
aa(lp85
I1
aI-250
aI200
ag21
aI01
aa(lp86
I0
aI-200
aI250
ag2
aI00
aa(lp87
I0
aI-150
aI250
ag2
aI00
aa(lp88
I0
aI-100
aI250
ag2
aI00
aa(lp89
I0
aI0
aI250
ag2
aI00
aa(lp90
I0
aI50
aI250
ag2
aI00
aa(lp91
I0
aI100
aI250
ag2
aI00
aa(lp92
I7
aI-50
aI50
aS'door_closed1.png'
p93
aI01
aa(lp94
I0
aI100
aI0
ag2
aI00
aa(lp95
I0
aI50
aI0
ag2
aI00
aa(lp96
I0
aI0
aI0
ag2
aI00
aa(lp97
I0
aI-50
aI0
ag2
aI00
aa(lp98
I0
aI-100
aI0
ag2
aI00
aa(lp99
I0
aI-150
aI0
ag2
aI00
aa(lp100
I0
aI-200
aI0
ag2
aI00
aa(lp101
I3
aI-50
aI250
aS'stairsDown.png'
p102
aI00
aa(lp103
I0
aI-50
aI200
ag2
aI00
aa(lp104
I0
aI-100
aI200
ag2
aI00
aa(lp105
I102
aS'spikeblock.png'
p106
aI-2861
aI-151153
aa(lp107
I103
ag106
aI-153263
aI100
aa(lp108
cpygame
__rect_constructor
p109
(I-50
I-150
I27
I46
tp110
Rp111
aa.