(lp0
(lp1
I0
aI50
aI0
aS'sand.png'
p2
aI00
aa(lp3
I1
aI100
aI0
aS'wall.png'
p4
aI01
aa(lp5
I2
aI150
aI0
aS'stairsBroken.png'
p6
aI00
aa(lp7
I3
aI200
aI0
aS'stairsDown.png'
p8
aI00
aa(lp9
cpygame
__rect_constructor
p10
(I150
I0
I27
I46
tp11
Rp12
aa.