(lp0
(lp1
I0
aI150
aI50
aS'sand.png'
p2
aI00
aa(lp3
I0
aI100
aI50
ag2
aI00
aa(lp4
I0
aI50
aI50
ag2
aI00
aa(lp5
I0
aI50
aI150
ag2
aI00
aa(lp6
I0
aI300
aI-100
ag2
aI00
aa(lp7
I0
aI150
aI-100
ag2
aI00
aa(lp8
I0
aI300
aI-50
ag2
aI00
aa(lp9
I0
aI0
aI-100
ag2
aI00
aa(lp10
I0
aI-50
aI150
ag2
aI00
aa(lp11
I0
aI250
aI150
ag2
aI00
aa(lp12
I0
aI300
aI150
ag2
aI00
aa(lp13
I0
aI350
aI150
ag2
aI00
aa(lp14
I0
aI400
aI50
ag2
aI00
aa(lp15
I0
aI400
aI0
ag2
aI00
aa(lp16
I0
aI400
aI-50
ag2
aI00
aa(lp17
I0
aI300
aI-150
ag2
aI00
aa(lp18
I0
aI200
aI-150
ag2
aI00
aa(lp19
I0
aI150
aI-150
ag2
aI00
aa(lp20
I0
aI100
aI-150
ag2
aI00
aa(lp21
I3
aI50
aI200
aS'stairsDown.png'
p22
aI00
aa(lp23
I1
aI400
aI-200
aS'wall.png'
p24
aI01
aa(lp25
I1
aI350
aI-200
ag24
aI01
aa(lp26
I1
aI300
aI-200
ag24
aI01
aa(lp27
I1
aI250
aI-200
ag24
aI01
aa(lp28
I1
aI200
aI-200
ag24
aI01
aa(lp29
I1
aI150
aI-200
ag24
aI01
aa(lp30
I1
aI100
aI-200
ag24
aI01
aa(lp31
I1
aI50
aI-200
ag24
aI01
aa(lp32
I1
aI0
aI300
ag24
aI01
aa(lp33
I1
aI150
aI300
ag24
aI01
aa(lp34
I1
aI450
aI150
ag24
aI01
aa(lp35
I1
aI450
aI100
ag24
aI01
aa(lp36
I1
aI450
aI50
ag24
aI01
aa(lp37
I1
aI450
aI0
ag24
aI01
aa(lp38
I1
aI450
aI-50
ag24
aI01
aa(lp39
I1
aI450
aI-150
ag24
aI01
aa(lp40
I0
aI400
aI-100
ag2
aI00
aa(lp41
I0
aI300
aI50
ag2
aI00
aa(lp42
I0
aI250
aI50
ag2
aI00
aa(lp43
I0
aI200
aI50
ag2
aI00
aa(lp44
I0
aI200
aI0
ag2
aI00
aa(lp45
I0
aI150
aI0
ag2
aI00
aa(lp46
I0
aI100
aI0
ag2
aI00
aa(lp47
I0
aI50
aI0
ag2
aI00
aa(lp48
I0
aI0
aI-50
ag2
aI00
aa(lp49
I0
aI50
aI-50
ag2
aI00
aa(lp50
I0
aI300
aI0
ag2
aI00
aa(lp51
I0
aI250
aI0
ag2
aI00
aa(lp52
I0
aI150
aI-50
ag2
aI00
aa(lp53
I0
aI100
aI-50
ag2
aI00
aa(lp54
I0
aI100
aI-100
ag2
aI00
aa(lp55
I0
aI50
aI-100
ag2
aI00
aa(lp56
I0
aI50
aI-150
ag2
aI00
aa(lp57
I0
aI0
aI-150
ag2
aI00
aa(lp58
I0
aI-100
aI0
ag2
aI00
aa(lp59
I0
aI-100
aI-150
ag2
aI00
aa(lp60
I0
aI-100
aI-100
ag2
aI00
aa(lp61
I0
aI-100
aI-50
ag2
aI00
aa(lp62
I0
aI-100
aI50
ag2
aI00
aa(lp63
I0
aI-100
aI150
ag2
aI00
aa(lp64
I0
aI-100
aI200
ag2
aI00
aa(lp65
I0
aI-50
aI200
ag2
aI00
aa(lp66
I0
aI50
aI250
ag2
aI00
aa(lp67
I0
aI200
aI250
ag2
aI00
aa(lp68
I0
aI250
aI250
ag2
aI00
aa(lp69
I0
aI300
aI200
ag2
aI00
aa(lp70
I0
aI350
aI200
ag2
aI00
aa(lp71
I0
aI400
aI150
ag2
aI00
aa(lp72
I0
aI400
aI200
ag2
aI00
aa(lp73
I0
aI400
aI250
ag2
aI00
aa(lp74
I0
aI300
aI250
ag2
aI00
aa(lp75
I0
aI350
aI250
ag2
aI00
aa(lp76
I1
aI450
aI200
ag24
aI01
aa(lp77
I1
aI450
aI250
ag24
aI01
aa(lp78
I1
aI450
aI300
ag24
aI01
aa(lp79
I1
aI400
aI300
ag24
aI01
aa(lp80
I1
aI350
aI300
ag24
aI01
aa(lp81
I1
aI300
aI300
ag24
aI01
aa(lp82
I1
aI-150
aI250
ag24
aI01
aa(lp83
I1
aI-150
aI200
ag24
aI01
aa(lp84
I0
aI-100
aI250
ag2
aI00
aa(lp85
I1
aI-50
aI-200
ag24
aI01
aa(lp86
I1
aI0
aI-200
ag24
aI01
aa(lp87
I1
aI450
aI-200
ag24
aI01
aa(lp88
I0
aI100
aI150
ag2
aI00
aa(lp89
I0
aI100
aI200
ag2
aI00
aa(lp90
I0
aI200
aI-100
ag2
aI00
aa(lp91
I0
aI250
aI-150
ag2
aI00
aa(lp92
I0
aI250
aI-100
ag2
aI00
aa(lp93
I0
aI250
aI-50
ag2
aI00
aa(lp94
I0
aI200
aI-50
ag2
aI00
aa(lp95
I2
aI250
aI200
aS'stairsBroken.png'
p96
aI00
aa(lp97
I0
aI200
aI150
ag2
aI00
aa(lp98
I0
aI200
aI200
ag2
aI00
aa(lp99
I1
aI150
aI250
ag24
aI01
aa(lp100
I1
aI150
aI100
ag24
aI01
aa(lp101
I1
aI200
aI100
ag24
aI01
aa(lp102
I1
aI250
aI100
ag24
aI01
aa(lp103
I1
aI300
aI100
ag24
aI01
aa(lp104
I1
aI350
aI100
ag24
aI01
aa(lp105
I1
aI100
aI100
ag24
aI01
aa(lp106
I1
aI50
aI100
ag24
aI01
aa(lp107
I1
aI0
aI100
ag24
aI01
aa(lp108
I1
aI-50
aI100
ag24
aI01
aa(lp109
I7
aI-100
aI100
aS'door_closed1.png'
p110
aI01
aa(lp111
I7
aI400
aI100
ag110
aI01
aa(lp112
I1
aI450
aI-100
ag24
aI01
aa(lp113
I1
aI-150
aI150
ag24
aI01
aa(lp114
I1
aI-150
aI100
ag24
aI01
aa(lp115
I1
aI-100
aI-200
ag24
aI01
aa(lp116
I1
aI-150
aI-200
ag24
aI01
aa(lp117
I0
aI0
aI0
ag2
aI00
aa(lp118
I1
aI0
aI150
ag24
aI01
aa(lp119
I1
aI0
aI200
ag24
aI01
aa(lp120
I1
aI0
aI250
ag24
aI01
aa(lp121
I0
aI-50
aI0
ag2
aI00
aa(lp122
I0
aI-50
aI-50
ag2
aI00
aa(lp123
I0
aI-50
aI-100
ag2
aI00
aa(lp124
I0
aI-50
aI-150
ag2
aI00
aa(lp125
I0
aI350
aI-150
ag2
aI00
aa(lp126
I0
aI350
aI-100
ag2
aI00
aa(lp127
I0
aI350
aI-50
ag2
aI00
aa(lp128
I0
aI350
aI0
ag2
aI00
aa(lp129
I0
aI350
aI50
ag2
aI00
aa(lp130
I0
aI0
aI50
ag2
aI00
aa(lp131
I0
aI-50
aI50
ag2
aI00
aa(lp132
I1
aI-150
aI-150
ag24
aI01
aa(lp133
I1
aI-150
aI-100
ag24
aI01
aa(lp134
I1
aI-150
aI-50
ag24
aI01
aa(lp135
I1
aI-150
aI0
ag24
aI01
aa(lp136
I10
aI0
aI350
aS'door_closedLock2.png'
p137
aI01
aa(lp138
I0
aI-50
aI250
ag2
aI00
aa(lp139
I0
aI-50
aI300
ag2
aI00
aa(lp140
I0
aI-50
aI350
ag2
aI00
aa(lp141
I0
aI50
aI350
ag2
aI00
aa(lp142
I1
aI250
aI300
ag24
aI01
aa(lp143
I1
aI100
aI400
ag24
aI01
aa(lp144
I1
aI50
aI400
ag24
aI01
aa(lp145
I1
aI0
aI400
ag24
aI01
aa(lp146
I1
aI-50
aI400
ag24
aI01
aa(lp147
I1
aI-100
aI400
ag24
aI01
aa(lp148
I1
aI150
aI150
ag24
aI01
aa(lp149
I1
aI150
aI200
ag24
aI01
aa(lp150
I1
aI200
aI300
ag24
aI01
aa(lp151
I0
aI100
aI250
ag2
aI00
aa(lp152
I0
aI100
aI300
ag2
aI00
aa(lp153
I0
aI100
aI350
ag2
aI00
aa(lp154
I1
aI150
aI350
ag24
aI01
aa(lp155
I1
aI150
aI400
ag24
aI01
aa(lp156
I0
aI50
aI300
ag2
aI00
aa(lp157
I0
aI-100
aI300
ag2
aI00
aa(lp158
I0
aI-100
aI350
ag2
aI00
aa(lp159
I1
aI-150
aI300
ag24
aI01
aa(lp160
I1
aI-150
aI350
ag24
aI01
aa(lp161
I1
aI-150
aI400
ag24
aI01
aa(lp162
I100
aS'chest.png'
p163
aI-50
aI200
aa(lp164
I102
aS'spikeblock.png'
p165
aI50
aI4
aa(lp166
I102
ag165
aI300
aI-29
aa(lp167
I104
aS'turretleft.png'
p168
aI400
aI-150
aa(lp169
I105
aS'turretright.png'
p170
aI-150
aI50
aa(lp171
I100
ag163
aI-50
aI250
aa(lp172
cpygame
__rect_constructor
p173
(I250
I200
I27
I46
tp174
Rp175
aa.