(lp0
(lp1
I0
aI50
aI0
aS'sand.png'
p2
aI00
aa(lp3
I1
aI100
aI0
aS'wall.png'
p4
aI01
aa(lp5
I2
aI150
aI0
aS'stairsBroken.png'
p6
aI00
aa(lp7
I3
aI200
aI0
aS'stairsDown.png'
p8
aI00
aa(lp9
I0
aI200
aI-50
aS'sand.png'
p10
aI00
aa(lp11
I0
aI150
aI-50
ag10
aI00
aa(lp12
I0
aI100
aI-50
ag10
aI00
aa(lp13
I0
aI50
aI-50
ag10
aI00
aa(lp14
I0
aI0
aI-50
ag10
aI00
aa(lp15
I0
aI0
aI0
ag10
aI00
aa(lp16
I0
aI0
aI50
ag10
aI00
aa(lp17
I0
aI50
aI50
ag10
aI00
aa(lp18
I0
aI100
aI50
ag10
aI00
aa(lp19
I0
aI150
aI50
ag10
aI00
aa(lp20
I0
aI200
aI50
ag10
aI00
aa(lp21
I0
aI250
aI50
ag10
aI00
aa(lp22
I0
aI250
aI0
ag10
aI00
aa(lp23
I0
aI250
aI-50
ag10
aI00
aa(lp24
I0
aI150
aI-100
ag10
aI00
aa(lp25
I0
aI100
aI-100
ag10
aI00
aa(lp26
I0
aI50
aI-100
ag10
aI00
aa(lp27
I0
aI0
aI-100
ag10
aI00
aa(lp28
I0
aI-50
aI-100
ag10
aI00
aa(lp29
I0
aI-50
aI-50
ag10
aI00
aa(lp30
I0
aI-50
aI0
ag10
aI00
aa(lp31
I0
aI-50
aI50
ag10
aI00
aa(lp32
I0
aI-50
aI100
ag10
aI00
aa(lp33
I0
aI0
aI100
ag10
aI00
aa(lp34
I0
aI50
aI100
ag10
aI00
aa(lp35
I0
aI100
aI100
ag10
aI00
aa(lp36
I0
aI150
aI100
ag10
aI00
aa(lp37
I0
aI300
aI50
ag10
aI00
aa(lp38
I0
aI300
aI0
ag10
aI00
aa(lp39
I0
aI300
aI-50
ag10
aI00
aa(lp40
I0
aI300
aI-100
ag10
aI00
aa(lp41
I0
aI250
aI-100
ag10
aI00
aa(lp42
I0
aI200
aI-100
ag10
aI00
aa(lp43
I0
aI-150
aI-150
ag10
aI00
aa(lp44
I0
aI-50
aI-150
ag10
aI00
aa(lp45
I0
aI0
aI-150
ag10
aI00
aa(lp46
I0
aI50
aI-150
ag10
aI00
aa(lp47
I0
aI100
aI-150
ag10
aI00
aa(lp48
I0
aI150
aI-150
ag10
aI00
aa(lp49
I0
aI200
aI-150
ag10
aI00
aa(lp50
I0
aI250
aI-150
ag10
aI00
aa(lp51
I0
aI300
aI-150
ag10
aI00
aa(lp52
I0
aI350
aI-150
ag10
aI00
aa(lp53
I0
aI350
aI-100
ag10
aI00
aa(lp54
I0
aI350
aI-50
ag10
aI00
aa(lp55
I0
aI350
aI0
ag10
aI00
aa(lp56
I0
aI350
aI50
ag10
aI00
aa(lp57
I0
aI350
aI100
ag10
aI00
aa(lp58
I0
aI300
aI100
ag10
aI00
aa(lp59
I0
aI250
aI100
ag10
aI00
aa(lp60
I0
aI200
aI100
ag10
aI00
aa(lp61
I0
aI-100
aI-150
ag10
aI00
aa(lp62
I0
aI-100
aI-100
ag10
aI00
aa(lp63
I0
aI-100
aI-50
ag10
aI00
aa(lp64
I0
aI-100
aI0
ag10
aI00
aa(lp65
I0
aI-100
aI50
ag10
aI00
aa(lp66
I0
aI-100
aI100
ag10
aI00
aa(lp67
I0
aI-150
aI100
ag10
aI00
aa(lp68
I0
aI-150
aI50
ag10
aI00
aa(lp69
I0
aI-150
aI0
ag10
aI00
aa(lp70
I0
aI-150
aI-50
ag10
aI00
aa(lp71
I0
aI-150
aI-100
ag10
aI00
aa(lp72
cpygame
__rect_constructor
p73
(I171
I-42
I27
I46
tp74
Rp75
aa.