(lp0
(lp1
I0
aI50
aI50
aS'sand.png'
p2
aI00
aa(lp3
I0
aI100
aI50
ag2
aI00
aa(lp4
I0
aI200
aI50
ag2
aI00
aa(lp5
I0
aI250
aI50
ag2
aI00
aa(lp6
I0
aI50
aI0
ag2
aI00
aa(lp7
I0
aI50
aI100
ag2
aI00
aa(lp8
I0
aI250
aI200
ag2
aI00
aa(lp9
I0
aI300
aI-50
ag2
aI00
aa(lp10
I0
aI250
aI-50
ag2
aI00
aa(lp11
I0
aI100
aI100
ag2
aI00
aa(lp12
I0
aI300
aI100
ag2
aI00
aa(lp13
I0
aI150
aI100
ag2
aI00
aa(lp14
I0
aI250
aI100
ag2
aI00
aa(lp15
I0
aI200
aI100
ag2
aI00
aa(lp16
I0
aI0
aI100
ag2
aI00
aa(lp17
I0
aI0
aI50
ag2
aI00
aa(lp18
I0
aI0
aI0
ag2
aI00
aa(lp19
I0
aI0
aI-50
ag2
aI00
aa(lp20
I0
aI50
aI-50
ag2
aI00
aa(lp21
I0
aI0
aI-100
ag2
aI00
aa(lp22
I0
aI50
aI-100
ag2
aI00
aa(lp23
I0
aI200
aI-100
ag2
aI00
aa(lp24
I0
aI250
aI-100
ag2
aI00
aa(lp25
I0
aI300
aI-100
ag2
aI00
aa(lp26
I0
aI350
aI-100
ag2
aI00
aa(lp27
I0
aI350
aI-50
ag2
aI00
aa(lp28
I0
aI350
aI0
ag2
aI00
aa(lp29
I0
aI300
aI200
ag2
aI00
aa(lp30
I0
aI50
aI450
ag2
aI00
aa(lp31
I0
aI50
aI500
ag2
aI00
aa(lp32
I0
aI0
aI500
ag2
aI00
aa(lp33
I0
aI400
aI350
ag2
aI00
aa(lp34
I0
aI450
aI100
ag2
aI00
aa(lp35
I0
aI450
aI50
ag2
aI00
aa(lp36
I0
aI500
aI50
ag2
aI00
aa(lp37
I0
aI500
aI0
ag2
aI00
aa(lp38
I0
aI100
aI-100
ag2
aI00
aa(lp39
I0
aI150
aI-100
ag2
aI00
aa(lp40
I0
aI0
aI450
ag2
aI00
aa(lp41
I0
aI-300
aI450
ag2
aI00
aa(lp42
I0
aI-300
aI400
ag2
aI00
aa(lp43
I0
aI-100
aI450
ag2
aI00
aa(lp44
I0
aI-150
aI450
ag2
aI00
aa(lp45
I0
aI-200
aI450
ag2
aI00
aa(lp46
I0
aI-200
aI400
ag2
aI00
aa(lp47
I0
aI-150
aI400
ag2
aI00
aa(lp48
I0
aI-100
aI400
ag2
aI00
aa(lp49
I0
aI-150
aI350
ag2
aI00
aa(lp50
I0
aI-350
aI400
ag2
aI00
aa(lp51
I0
aI-350
aI450
ag2
aI00
aa(lp52
I0
aI-200
aI500
ag2
aI00
aa(lp53
I0
aI-150
aI500
ag2
aI00
aa(lp54
I0
aI-100
aI500
ag2
aI00
aa(lp55
I0
aI-50
aI500
ag2
aI00
aa(lp56
I0
aI-50
aI450
ag2
aI00
aa(lp57
I0
aI-50
aI400
ag2
aI00
aa(lp58
I0
aI-100
aI350
ag2
aI00
aa(lp59
I0
aI450
aI350
ag2
aI00
aa(lp60
I0
aI500
aI300
ag2
aI00
aa(lp61
I0
aI500
aI200
ag2
aI00
aa(lp62
I0
aI500
aI150
ag2
aI00
aa(lp63
I0
aI500
aI100
ag2
aI00
aa(lp64
I0
aI550
aI0
ag2
aI00
aa(lp65
I0
aI600
aI-100
ag2
aI00
aa(lp66
I0
aI550
aI-100
ag2
aI00
aa(lp67
I0
aI500
aI-100
ag2
aI00
aa(lp68
I0
aI500
aI-50
ag2
aI00
aa(lp69
I0
aI550
aI-50
ag2
aI00
aa(lp70
I0
aI600
aI-50
ag2
aI00
aa(lp71
I0
aI650
aI-50
ag2
aI00
aa(lp72
I0
aI650
aI0
ag2
aI00
aa(lp73
I0
aI600
aI0
ag2
aI00
aa(lp74
I1
aI400
aI0
aS'wall.png'
p75
aI01
aa(lp76
I1
aI450
aI-150
ag75
aI01
aa(lp77
I1
aI500
aI-150
ag75
aI01
aa(lp78
I1
aI550
aI-150
ag75
aI01
aa(lp79
I1
aI600
aI-150
ag75
aI01
aa(lp80
I1
aI650
aI-150
ag75
aI01
aa(lp81
I1
aI700
aI-150
ag75
aI01
aa(lp82
I1
aI700
aI-100
ag75
aI01
aa(lp83
I1
aI700
aI-50
ag75
aI01
aa(lp84
I1
aI700
aI0
ag75
aI01
aa(lp85
I1
aI700
aI50
ag75
aI01
aa(lp86
I1
aI650
aI50
ag75
aI01
aa(lp87
I1
aI600
aI50
ag75
aI01
aa(lp88
I1
aI550
aI50
ag75
aI01
aa(lp89
I1
aI550
aI100
ag75
aI01
aa(lp90
I1
aI550
aI150
ag75
aI01
aa(lp91
I1
aI550
aI200
ag75
aI01
aa(lp92
I1
aI550
aI250
ag75
aI01
aa(lp93
I0
aI250
aI350
ag2
aI00
aa(lp94
I0
aI200
aI350
ag2
aI00
aa(lp95
I0
aI150
aI350
ag2
aI00
aa(lp96
I1
aI100
aI500
ag75
aI01
aa(lp97
I1
aI0
aI550
ag75
aI01
aa(lp98
I1
aI-50
aI550
ag75
aI01
aa(lp99
I1
aI-100
aI550
ag75
aI01
aa(lp100
I1
aI-150
aI550
ag75
aI01
aa(lp101
I1
aI-200
aI550
ag75
aI01
aa(lp102
I1
aI-250
aI550
ag75
aI01
aa(lp103
I1
aI-350
aI550
ag75
aI01
aa(lp104
I1
aI-400
aI550
ag75
aI01
aa(lp105
I1
aI-400
aI500
ag75
aI01
aa(lp106
I1
aI-400
aI450
ag75
aI01
aa(lp107
I1
aI-400
aI400
ag75
aI01
aa(lp108
I1
aI250
aI250
ag75
aI01
aa(lp109
I1
aI300
aI250
ag75
aI01
aa(lp110
I1
aI350
aI250
ag75
aI01
aa(lp111
I1
aI400
aI250
ag75
aI01
aa(lp112
I1
aI400
aI300
ag75
aI01
aa(lp113
I1
aI450
aI250
ag75
aI01
aa(lp114
I1
aI450
aI200
ag75
aI01
aa(lp115
I1
aI450
aI150
ag75
aI01
aa(lp116
I1
aI400
aI150
ag75
aI01
aa(lp117
I1
aI400
aI200
ag75
aI01
aa(lp118
I1
aI400
aI-50
ag75
aI01
aa(lp119
I1
aI400
aI-100
ag75
aI01
aa(lp120
I1
aI400
aI-150
ag75
aI01
aa(lp121
I1
aI350
aI-150
ag75
aI01
aa(lp122
I1
aI300
aI-150
ag75
aI01
aa(lp123
I1
aI250
aI-150
ag75
aI01
aa(lp124
I0
aI450
aI0
ag2
aI00
aa(lp125
I0
aI450
aI-50
ag2
aI00
aa(lp126
I0
aI450
aI-100
ag2
aI00
aa(lp127
I1
aI-50
aI100
ag75
aI01
aa(lp128
I1
aI-50
aI50
ag75
aI01
aa(lp129
I1
aI-50
aI0
ag75
aI01
aa(lp130
I1
aI-50
aI-50
ag75
aI01
aa(lp131
I1
aI-50
aI-100
ag75
aI01
aa(lp132
I1
aI-50
aI-150
ag75
aI01
aa(lp133
I1
aI0
aI-150
ag75
aI01
aa(lp134
I1
aI50
aI-150
ag75
aI01
aa(lp135
I1
aI100
aI-150
ag75
aI01
aa(lp136
I1
aI150
aI-150
ag75
aI01
aa(lp137
I1
aI200
aI-150
ag75
aI01
aa(lp138
I1
aI350
aI300
ag75
aI01
aa(lp139
I1
aI300
aI300
ag75
aI01
aa(lp140
I1
aI250
aI300
ag75
aI01
aa(lp141
I1
aI200
aI300
ag75
aI01
aa(lp142
I1
aI-250
aI500
ag75
aI01
aa(lp143
I1
aI-250
aI450
ag75
aI01
aa(lp144
I1
aI-250
aI350
ag75
aI01
aa(lp145
I2
aI-350
aI500
aS'stairsBroken.png'
p146
aI00
aa(lp147
I3
aI650
aI-100
aS'stairsDown.png'
p148
aI00
aa(lp149
I0
aI200
aI-50
ag2
aI00
aa(lp150
I0
aI500
aI350
ag2
aI00
aa(lp151
I0
aI100
aI350
ag2
aI00
aa(lp152
I0
aI50
aI400
ag2
aI00
aa(lp153
I0
aI0
aI400
ag2
aI00
aa(lp154
I0
aI-50
aI350
ag2
aI00
aa(lp155
I0
aI0
aI350
ag2
aI00
aa(lp156
I0
aI50
aI350
ag2
aI00
aa(lp157
I8
aI400
aI100
aS'door_closed2.png'
p158
aI01
aa(lp159
I0
aI150
aI50
ag2
aI00
aa(lp160
I0
aI100
aI0
ag2
aI00
aa(lp161
I0
aI100
aI-50
ag2
aI00
aa(lp162
I0
aI150
aI-50
ag2
aI00
aa(lp163
I0
aI150
aI0
ag2
aI00
aa(lp164
I0
aI200
aI0
ag2
aI00
aa(lp165
I0
aI250
aI0
ag2
aI00
aa(lp166
I0
aI300
aI0
ag2
aI00
aa(lp167
I0
aI300
aI50
ag2
aI00
aa(lp168
I0
aI350
aI50
ag2
aI00
aa(lp169
I0
aI350
aI100
ag2
aI00
aa(lp170
I0
aI350
aI200
ag2
aI00
aa(lp171
I0
aI350
aI150
ag2
aI00
aa(lp172
I0
aI300
aI150
ag2
aI00
aa(lp173
I10
aI-250
aI400
aS'door_closedLock2.png'
p174
aI01
aa(lp175
I0
aI-250
aI600
ag2
aI00
aa(lp176
I0
aI-200
aI600
ag2
aI00
aa(lp177
I0
aI-150
aI600
ag2
aI00
aa(lp178
I0
aI-100
aI600
ag2
aI00
aa(lp179
I0
aI-50
aI600
ag2
aI00
aa(lp180
I0
aI0
aI600
ag2
aI00
aa(lp181
I1
aI100
aI550
ag75
aI01
aa(lp182
I1
aI100
aI600
ag75
aI01
aa(lp183
I1
aI100
aI650
ag75
aI01
aa(lp184
I1
aI100
aI700
ag75
aI01
aa(lp185
I1
aI100
aI750
ag75
aI01
aa(lp186
I0
aI-300
aI500
ag2
aI00
aa(lp187
I0
aI-300
aI600
ag2
aI00
aa(lp188
I0
aI-300
aI650
ag2
aI00
aa(lp189
I0
aI-300
aI700
ag2
aI00
aa(lp190
I0
aI-250
aI700
ag2
aI00
aa(lp191
I0
aI-250
aI650
ag2
aI00
aa(lp192
I0
aI-150
aI700
ag2
aI00
aa(lp193
I0
aI-200
aI700
ag2
aI00
aa(lp194
I0
aI-200
aI650
ag2
aI00
aa(lp195
I0
aI-150
aI650
ag2
aI00
aa(lp196
I0
aI-100
aI650
ag2
aI00
aa(lp197
I0
aI-50
aI650
ag2
aI00
aa(lp198
I0
aI-100
aI700
ag2
aI00
aa(lp199
I0
aI-50
aI700
ag2
aI00
aa(lp200
I0
aI0
aI700
ag2
aI00
aa(lp201
I0
aI50
aI700
ag2
aI00
aa(lp202
I0
aI0
aI650
ag2
aI00
aa(lp203
I0
aI50
aI650
ag2
aI00
aa(lp204
I0
aI50
aI600
ag2
aI00
aa(lp205
I7
aI50
aI550
aS'door_closed1.png'
p206
aI01
aa(lp207
I7
aI-300
aI550
ag206
aI01
aa(lp208
I1
aI-300
aI350
ag75
aI01
aa(lp209
I1
aI-350
aI350
ag75
aI01
aa(lp210
I1
aI-400
aI350
ag75
aI01
aa(lp211
I1
aI-200
aI350
ag75
aI01
aa(lp212
I1
aI-400
aI600
ag75
aI01
aa(lp213
I1
aI-400
aI650
ag75
aI01
aa(lp214
I1
aI-400
aI700
ag75
aI01
aa(lp215
I1
aI-400
aI750
ag75
aI01
aa(lp216
I0
aI-350
aI700
ag2
aI00
aa(lp217
I0
aI-350
aI650
ag2
aI00
aa(lp218
I0
aI-350
aI600
ag2
aI00
aa(lp219
I1
aI0
aI750
ag75
aI01
aa(lp220
I1
aI-100
aI750
ag75
aI01
aa(lp221
I1
aI-200
aI750
ag75
aI01
aa(lp222
I1
aI-300
aI750
ag75
aI01
aa(lp223
I0
aI-350
aI750
ag2
aI00
aa(lp224
I0
aI50
aI750
ag2
aI00
aa(lp225
I0
aI-150
aI750
ag2
aI00
aa(lp226
I0
aI-250
aI750
ag2
aI00
aa(lp227
I0
aI-50
aI750
ag2
aI00
aa(lp228
I1
aI-400
aI800
ag75
aI01
aa(lp229
I1
aI-350
aI800
ag75
aI01
aa(lp230
I1
aI-300
aI800
ag75
aI01
aa(lp231
I1
aI-250
aI800
ag75
aI01
aa(lp232
I1
aI-200
aI800
ag75
aI01
aa(lp233
I1
aI-150
aI800
ag75
aI01
aa(lp234
I1
aI-100
aI800
ag75
aI01
aa(lp235
I1
aI-50
aI800
ag75
aI01
aa(lp236
I1
aI0
aI800
ag75
aI01
aa(lp237
I1
aI50
aI800
ag75
aI01
aa(lp238
I1
aI100
aI800
ag75
aI01
aa(lp239
I1
aI150
aI300
ag75
aI01
aa(lp240
I1
aI100
aI300
ag75
aI01
aa(lp241
I1
aI50
aI300
ag75
aI01
aa(lp242
I1
aI0
aI300
ag75
aI01
aa(lp243
I1
aI-50
aI300
ag75
aI01
aa(lp244
I1
aI-100
aI300
ag75
aI01
aa(lp245
I1
aI-150
aI300
ag75
aI01
aa(lp246
I1
aI-200
aI300
ag75
aI01
aa(lp247
I1
aI-50
aI150
ag75
aI01
aa(lp248
I1
aI-50
aI200
ag75
aI01
aa(lp249
I1
aI-50
aI250
ag75
aI01
aa(lp250
I1
aI0
aI250
ag75
aI01
aa(lp251
I1
aI50
aI250
ag75
aI01
aa(lp252
I1
aI100
aI250
ag75
aI01
aa(lp253
I1
aI150
aI250
ag75
aI01
aa(lp254
I1
aI200
aI250
ag75
aI01
aa(lp255
I0
aI250
aI150
ag2
aI00
aa(lp256
I0
aI150
aI150
ag2
aI00
aa(lp257
I0
aI200
aI150
ag2
aI00
aa(lp258
I0
aI200
aI200
ag2
aI00
aa(lp259
I0
aI150
aI200
ag2
aI00
aa(lp260
I0
aI100
aI200
ag2
aI00
aa(lp261
I0
aI100
aI150
ag2
aI00
aa(lp262
I0
aI50
aI150
ag2
aI00
aa(lp263
I0
aI50
aI200
ag2
aI00
aa(lp264
I0
aI0
aI200
ag2
aI00
aa(lp265
I0
aI0
aI150
ag2
aI00
aa(lp266
I1
aI550
aI300
ag75
aI01
aa(lp267
I1
aI550
aI350
ag75
aI01
aa(lp268
I1
aI550
aI400
ag75
aI01
aa(lp269
I1
aI500
aI400
ag75
aI01
aa(lp270
I1
aI450
aI400
ag75
aI01
aa(lp271
I1
aI400
aI400
ag75
aI01
aa(lp272
I1
aI450
aI300
ag75
aI01
aa(lp273
I1
aI100
aI450
ag75
aI01
aa(lp274
I1
aI100
aI400
ag75
aI01
aa(lp275
I1
aI150
aI400
ag75
aI01
aa(lp276
I1
aI200
aI400
ag75
aI01
aa(lp277
I1
aI250
aI400
ag75
aI01
aa(lp278
I1
aI300
aI400
ag75
aI01
aa(lp279
I1
aI350
aI400
ag75
aI01
aa(lp280
I0
aI350
aI350
ag2
aI00
aa(lp281
I0
aI300
aI350
ag2
aI00
aa(lp282
I0
aI500
aI250
ag2
aI00
aa(lp283
I103
aS'spikeblock.png'
p284
aI34
aI600
aa(lp285
I103
ag284
aI34
aI650
aa(lp286
I103
ag284
aI34
aI700
aa(lp287
I100
aS'chest.png'
p288
aI0
aI50
aa(lp289
I104
aS'turretleft.png'
p290
aI400
aI50
aa(lp291
I103
ag284
aI-104
aI350
aa(lp292
I102
aS'spikeblock.png'
p293
aI150
aI200
aa(lp294
I102
ag293
aI200
aI-100
aa(lp295
cpygame
__rect_constructor
p296
(I-350
I500
I27
I46
tp297
Rp298
aa.